target datalayout = "e-m:e-p270:32:32-p271:32:32-p272:64:64-i64:64-i128:128-f80:128-n8:16:32:64-S128"
target triple = "x86_64-pc-linux-gnu"

%struct._object = type { %union.anon, ptr }
%union.anon = type { i64 }
%struct.BZ2Compressor = type { %struct._object, %struct.bz_stream, i32, ptr }
%struct.bz_stream = type { ptr, i32, i32, i32, ptr, i32, i32, i32, ptr, ptr, ptr, ptr }

@PyExc_ValueError = external global ptr, align 8
@.str.17 = private unnamed_addr constant [25 x i8] c"Repeated call to flush()\00", align 1

; Function Attrs: nounwind uwtable
define internal ptr @_bz2_BZ2Compressor_flush_impl(ptr noundef %0) #0 {
  %2 = alloca ptr, align 8
  %3 = alloca ptr, align 8
  %4 = alloca ptr, align 8
  store ptr %0, ptr %2, align 8, !tbaa !8
  call void @llvm.lifetime.start.p0(i64 8, ptr %3) #7
  store ptr null, ptr %3, align 8, !tbaa !3
  br label %5

5:                                                ; preds = %1
  %6 = load ptr, ptr %2, align 8, !tbaa !8
  %7 = getelementptr inbounds nuw %struct.BZ2Compressor, ptr %6, i32 0, i32 3
  %8 = load ptr, ptr %7, align 8, !tbaa !18
  %9 = call i32 @PyThread_acquire_lock(ptr noundef %8, i32 noundef 0)
  %10 = icmp ne i32 %9, 0
  br i1 %10, label %18, label %11

11:                                               ; preds = %5
  call void @llvm.lifetime.start.p0(i64 8, ptr %4) #7
  %12 = call ptr @PyEval_SaveThread()
  store ptr %12, ptr %4, align 8, !tbaa !37
  %13 = load ptr, ptr %2, align 8, !tbaa !8
  %14 = getelementptr inbounds nuw %struct.BZ2Compressor, ptr %13, i32 0, i32 3
  %15 = load ptr, ptr %14, align 8, !tbaa !18
  %16 = call i32 @PyThread_acquire_lock(ptr noundef %15, i32 noundef 1)
  %17 = load ptr, ptr %4, align 8, !tbaa !37
  call void @PyEval_RestoreThread(ptr noundef %17)
  call void @llvm.lifetime.end.p0(i64 8, ptr %4) #7
  br label %18

18:                                               ; preds = %11, %5
  br label %19

19:                                               ; preds = %18
  br label %20

20:                                               ; preds = %19
  %21 = load ptr, ptr %2, align 8, !tbaa !8
  %22 = getelementptr inbounds nuw %struct.BZ2Compressor, ptr %21, i32 0, i32 2
  %23 = load i32, ptr %22, align 8, !tbaa !39
  %24 = icmp ne i32 %23, 0
  br i1 %24, label %25, label %27

25:                                               ; preds = %20
  %26 = load ptr, ptr @PyExc_ValueError, align 8, !tbaa !3
  call void @PyErr_SetString(ptr noundef %26, ptr noundef @.str.17)
  br label %32

27:                                               ; preds = %20
  %28 = load ptr, ptr %2, align 8, !tbaa !8
  %29 = getelementptr inbounds nuw %struct.BZ2Compressor, ptr %28, i32 0, i32 2
  store i32 1, ptr %29, align 8, !tbaa !39
  %30 = load ptr, ptr %2, align 8, !tbaa !8
  %31 = call ptr @compress(ptr noundef %30, ptr noundef null, i64 noundef 0, i32 noundef 2)
  store ptr %31, ptr %3, align 8, !tbaa !3
  br label %32

32:                                               ; preds = %27, %25
  %33 = load ptr, ptr %2, align 8, !tbaa !8
  %34 = getelementptr inbounds nuw %struct.BZ2Compressor, ptr %33, i32 0, i32 3
  %35 = load ptr, ptr %34, align 8, !tbaa !18
  call void @PyThread_release_lock(ptr noundef %35)
  %36 = load ptr, ptr %3, align 8, !tbaa !3
  call void @llvm.lifetime.end.p0(i64 8, ptr %3) #7
  ret ptr %36
}

; Function Attrs: nounwind uwtable
define internal ptr @_bz2_BZ2Compressor_flush(ptr noundef %0, ptr noundef %1) #0 {
  %3 = alloca ptr, align 8
  %4 = alloca ptr, align 8
  store ptr %0, ptr %3, align 8, !tbaa !3
  store ptr %1, ptr %4, align 8, !tbaa !3
  %5 = load ptr, ptr %3, align 8, !tbaa !3
  %6 = call ptr @_bz2_BZ2Compressor_flush_impl(ptr noundef %5)
  ret ptr %6
}