; Function Attrs: nounwind uwtable
define internal ptr @_bz2_BZ2Compressor_flush(ptr noundef %0, ptr readnone captures(none) %1) #0 {
  %3 = getelementptr inbounds nuw i8, ptr %0, i64 104
  %4 = load ptr, ptr %3, align 8, !tbaa !12
  %5 = tail call i32 @PyThread_acquire_lock(ptr noundef %4, i32 noundef 0) #7
  %.not.i = icmp eq i32 %5, 0
  br i1 %.not.i, label %6, label %10

6:                                                ; preds = %2
  %7 = tail call ptr @PyEval_SaveThread() #7
  %8 = load ptr, ptr %3, align 8, !tbaa !12
  %9 = tail call i32 @PyThread_acquire_lock(ptr noundef %8, i32 noundef 1) #7
  tail call void @PyEval_RestoreThread(ptr noundef %7) #7
  br label %10

10:                                               ; preds = %6, %2
  %11 = getelementptr inbounds nuw i8, ptr %0, i64 96
  %12 = load i32, ptr %11, align 8, !tbaa !35
  %.not8.i = icmp eq i32 %12, 0
  br i1 %.not8.i, label %15, label %13

13:                                               ; preds = %10
  %14 = load ptr, ptr @PyExc_ValueError, align 8, !tbaa !30
  tail call void @PyErr_SetString(ptr noundef %14, ptr noundef nonnull @.str.17) #7
  br label %_bz2_BZ2Compressor_flush_impl.exit

15:                                               ; preds = %10
  store i32 1, ptr %11, align 8, !tbaa !35
  %16 = tail call fastcc ptr @compress(ptr noundef nonnull %0, ptr noundef null, i64 noundef 0, i32 noundef 2)
  br label %_bz2_BZ2Compressor_flush_impl.exit

_bz2_BZ2Compressor_flush_impl.exit:               ; preds = %13, %15
  %.0.i = phi ptr [ null, %13 ], [ %16, %15 ]
  %17 = load ptr, ptr %3, align 8, !tbaa !12
  tail call void @PyThread_release_lock(ptr noundef %17) #7
  ret ptr %.0.i
}